target datalayout = "e-m:e-p270:32:32-p271:32:32-p272:64:64-i64:64-i128:128-f80:128-n8:16:32:64-S128"
target triple = "x86_64-pc-linux-gnu"

%struct.VLCElem = type { %union.anon.2 }
%union.anon.2 = type { %struct.anon }
%struct.anon = type { i16, i16 }
%struct.VLC = type { i32, ptr, i32, i32 }

@init_static.vlc_buf = internal global [1536 x %struct.VLCElem] zeroinitializer, align 16
@huff_vlc = internal global [3 x %struct.VLC] zeroinitializer, align 16
@ff_mlp_huffman_tables = external constant [3 x [18 x [2 x i8]]], align 16

; Function Attrs: cold nounwind optsize uwtable
define internal void @init_static() #0 {
  %1 = alloca i32, align 4
  call void @llvm.lifetime.start.p0(i64 4, ptr %1) #10
  store i32 0, ptr %1, align 4, !tbaa !34
  br label %2

2:                                                ; preds = %33, %0
  %3 = load i32, ptr %1, align 4, !tbaa !34
  %4 = icmp slt i32 %3, 3
  br i1 %4, label %6, label %5

5:                                                ; preds = %2
  call void @llvm.lifetime.end.p0(i64 4, ptr %1) #10
  br label %36

6:                                                ; preds = %2
  %7 = load i32, ptr %1, align 4, !tbaa !34
  %8 = mul nsw i32 %7, 512
  %9 = sext i32 %8 to i64
  %10 = getelementptr inbounds [1536 x %struct.VLCElem], ptr @init_static.vlc_buf, i64 0, i64 %9
  %11 = load i32, ptr %1, align 4, !tbaa !34
  %12 = sext i32 %11 to i64
  %13 = getelementptr inbounds [3 x %struct.VLC], ptr @huff_vlc, i64 0, i64 %12
  %14 = getelementptr inbounds nuw %struct.VLC, ptr %13, i32 0, i32 1
  store ptr %10, ptr %14, align 8, !tbaa !85
  %15 = load i32, ptr %1, align 4, !tbaa !34
  %16 = sext i32 %15 to i64
  %17 = getelementptr inbounds [3 x %struct.VLC], ptr @huff_vlc, i64 0, i64 %16
  %18 = getelementptr inbounds nuw %struct.VLC, ptr %17, i32 0, i32 3
  store i32 512, ptr %18, align 4, !tbaa !88
  %19 = load i32, ptr %1, align 4, !tbaa !34
  %20 = sext i32 %19 to i64
  %21 = getelementptr inbounds [3 x %struct.VLC], ptr @huff_vlc, i64 0, i64 %20
  %22 = load i32, ptr %1, align 4, !tbaa !34
  %23 = sext i32 %22 to i64
  %24 = getelementptr inbounds [3 x [18 x [2 x i8]]], ptr @ff_mlp_huffman_tables, i64 0, i64 %23
  %25 = getelementptr inbounds [18 x [2 x i8]], ptr %24, i64 0, i64 0
  %26 = getelementptr inbounds [2 x i8], ptr %25, i64 0, i64 1
  %27 = load i32, ptr %1, align 4, !tbaa !34
  %28 = sext i32 %27 to i64
  %29 = getelementptr inbounds [3 x [18 x [2 x i8]]], ptr @ff_mlp_huffman_tables, i64 0, i64 %28
  %30 = getelementptr inbounds [18 x [2 x i8]], ptr %29, i64 0, i64 0
  %31 = getelementptr inbounds [2 x i8], ptr %30, i64 0, i64 0
  %32 = call i32 @ff_vlc_init_sparse(ptr noundef %21, i32 noundef 9, i32 noundef 18, ptr noundef %26, i32 noundef 2, i32 noundef 1, ptr noundef %31, i32 noundef 2, i32 noundef 1, ptr noundef null, i32 noundef 0, i32 noundef 0, i32 noundef 1)
  br label %33

33:                                               ; preds = %6
  %34 = load i32, ptr %1, align 4, !tbaa !34
  %35 = add nsw i32 %34, 1
  store i32 %35, ptr %1, align 4, !tbaa !34
  br label %2, !llvm.loop !89

36:                                               ; preds = %5
  call void @ff_mlp_init_crc()
  ret void
}