; Function Attrs: cold nounwind optsize uwtable
define internal void @init_static() #0 {
  br label %2

1:                                                ; preds = %2
  tail call void @ff_mlp_init_crc() #8
  ret void

2:                                                ; preds = %0, %2
  %indvars.iv = phi i64 [ 0, %0 ], [ %indvars.iv.next, %2 ]
  %3 = shl nuw nsw i64 %indvars.iv, 9
  %4 = getelementptr inbounds nuw [1536 x %struct.VLCElem], ptr @init_static.vlc_buf, i64 0, i64 %3
  %5 = getelementptr inbounds nuw [3 x %struct.VLC], ptr @huff_vlc, i64 0, i64 %indvars.iv
  %6 = getelementptr inbounds nuw i8, ptr %5, i64 8
  store ptr %4, ptr %6, align 8, !tbaa !131
  %7 = getelementptr inbounds nuw i8, ptr %5, i64 20
  store i32 512, ptr %7, align 4, !tbaa !144
  %8 = getelementptr inbounds nuw [3 x [18 x [2 x i8]]], ptr @ff_mlp_huffman_tables, i64 0, i64 %indvars.iv
  %9 = getelementptr inbounds nuw i8, ptr %8, i64 1
  %10 = tail call i32 @ff_vlc_init_sparse(ptr noundef nonnull %5, i32 noundef 9, i32 noundef 18, ptr noundef nonnull %9, i32 noundef 2, i32 noundef 1, ptr noundef nonnull %8, i32 noundef 2, i32 noundef 1, ptr noundef null, i32 noundef 0, i32 noundef 0, i32 noundef 1) #8
  %indvars.iv.next = add nuw nsw i64 %indvars.iv, 1
  %exitcond.not = icmp eq i64 %indvars.iv.next, 3
  br i1 %exitcond.not, label %1, label %2, !llvm.loop !145
}